target datalayout = "e-m:e-p270:32:32-p271:32:32-p272:64:64-i64:64-i128:128-f80:128-n8:16:32:64-S128"
target triple = "x86_64-pc-linux-gnu"

%"struct.xgboost::PathElement" = type { i32, float, float, float }

; Function Attrs: mustprogress nounwind uwtable
define void @_ZN7xgboost10ExtendPathEPNS_11PathElementEjffi(ptr noundef %0, i32 noundef %1, float noundef %2, float noundef %3, i32 noundef %4) #4 {
  %6 = alloca ptr, align 8
  %7 = alloca i32, align 4
  %8 = alloca float, align 4
  %9 = alloca float, align 4
  %10 = alloca i32, align 4
  %11 = alloca i32, align 4
  store ptr %0, ptr %6, align 8, !tbaa !3
  store i32 %1, ptr %7, align 4, !tbaa !8
  store float %2, ptr %8, align 4, !tbaa !10
  store float %3, ptr %9, align 4, !tbaa !10
  store i32 %4, ptr %10, align 4, !tbaa !8
  %12 = load i32, ptr %10, align 4, !tbaa !8
  %13 = load ptr, ptr %6, align 8, !tbaa !3
  %14 = load i32, ptr %7, align 4, !tbaa !8
  %15 = zext i32 %14 to i64
  %16 = getelementptr inbounds nuw %"struct.xgboost::PathElement", ptr %13, i64 %15
  %17 = getelementptr inbounds nuw %"struct.xgboost::PathElement", ptr %16, i32 0, i32 0
  store i32 %12, ptr %17, align 4, !tbaa !12
  %18 = load float, ptr %8, align 4, !tbaa !10
  %19 = load ptr, ptr %6, align 8, !tbaa !3
  %20 = load i32, ptr %7, align 4, !tbaa !8
  %21 = zext i32 %20 to i64
  %22 = getelementptr inbounds nuw %"struct.xgboost::PathElement", ptr %19, i64 %21
  %23 = getelementptr inbounds nuw %"struct.xgboost::PathElement", ptr %22, i32 0, i32 1
  store float %18, ptr %23, align 4, !tbaa !14
  %24 = load float, ptr %9, align 4, !tbaa !10
  %25 = load ptr, ptr %6, align 8, !tbaa !3
  %26 = load i32, ptr %7, align 4, !tbaa !8
  %27 = zext i32 %26 to i64
  %28 = getelementptr inbounds nuw %"struct.xgboost::PathElement", ptr %25, i64 %27
  %29 = getelementptr inbounds nuw %"struct.xgboost::PathElement", ptr %28, i32 0, i32 2
  store float %24, ptr %29, align 4, !tbaa !15
  %30 = load i32, ptr %7, align 4, !tbaa !8
  %31 = icmp eq i32 %30, 0
  %32 = select i1 %31, float 1.000000e+00, float 0.000000e+00
  %33 = load ptr, ptr %6, align 8, !tbaa !3
  %34 = load i32, ptr %7, align 4, !tbaa !8
  %35 = zext i32 %34 to i64
  %36 = getelementptr inbounds nuw %"struct.xgboost::PathElement", ptr %33, i64 %35
  %37 = getelementptr inbounds nuw %"struct.xgboost::PathElement", ptr %36, i32 0, i32 3
  store float %32, ptr %37, align 4, !tbaa !16
  call void @llvm.lifetime.start.p0(i64 4, ptr %11) #3
  %38 = load i32, ptr %7, align 4, !tbaa !8
  %39 = sub i32 %38, 1
  store i32 %39, ptr %11, align 4, !tbaa !8
  br label %40

40:                                               ; preds = %91, %5
  %41 = load i32, ptr %11, align 4, !tbaa !8
  %42 = icmp sge i32 %41, 0
  br i1 %42, label %44, label %43

43:                                               ; preds = %40
  call void @llvm.lifetime.end.p0(i64 4, ptr %11) #3
  br label %94

44:                                               ; preds = %40
  %45 = load float, ptr %9, align 4, !tbaa !10
  %46 = load ptr, ptr %6, align 8, !tbaa !3
  %47 = load i32, ptr %11, align 4, !tbaa !8
  %48 = sext i32 %47 to i64
  %49 = getelementptr inbounds %"struct.xgboost::PathElement", ptr %46, i64 %48
  %50 = getelementptr inbounds nuw %"struct.xgboost::PathElement", ptr %49, i32 0, i32 3
  %51 = load float, ptr %50, align 4, !tbaa !16
  %52 = fmul float %45, %51
  %53 = load i32, ptr %11, align 4, !tbaa !8
  %54 = add nsw i32 %53, 1
  %55 = sitofp i32 %54 to float
  %56 = fmul float %52, %55
  %57 = load i32, ptr %7, align 4, !tbaa !8
  %58 = add i32 %57, 1
  %59 = uitofp i32 %58 to float
  %60 = fdiv float %56, %59
  %61 = load ptr, ptr %6, align 8, !tbaa !3
  %62 = load i32, ptr %11, align 4, !tbaa !8
  %63 = add nsw i32 %62, 1
  %64 = sext i32 %63 to i64
  %65 = getelementptr inbounds %"struct.xgboost::PathElement", ptr %61, i64 %64
  %66 = getelementptr inbounds nuw %"struct.xgboost::PathElement", ptr %65, i32 0, i32 3
  %67 = load float, ptr %66, align 4, !tbaa !16
  %68 = fadd float %67, %60
  store float %68, ptr %66, align 4, !tbaa !16
  %69 = load float, ptr %8, align 4, !tbaa !10
  %70 = load ptr, ptr %6, align 8, !tbaa !3
  %71 = load i32, ptr %11, align 4, !tbaa !8
  %72 = sext i32 %71 to i64
  %73 = getelementptr inbounds %"struct.xgboost::PathElement", ptr %70, i64 %72
  %74 = getelementptr inbounds nuw %"struct.xgboost::PathElement", ptr %73, i32 0, i32 3
  %75 = load float, ptr %74, align 4, !tbaa !16
  %76 = fmul float %69, %75
  %77 = load i32, ptr %7, align 4, !tbaa !8
  %78 = load i32, ptr %11, align 4, !tbaa !8
  %79 = sub i32 %77, %78
  %80 = uitofp i32 %79 to float
  %81 = fmul float %76, %80
  %82 = load i32, ptr %7, align 4, !tbaa !8
  %83 = add i32 %82, 1
  %84 = uitofp i32 %83 to float
  %85 = fdiv float %81, %84
  %86 = load ptr, ptr %6, align 8, !tbaa !3
  %87 = load i32, ptr %11, align 4, !tbaa !8
  %88 = sext i32 %87 to i64
  %89 = getelementptr inbounds %"struct.xgboost::PathElement", ptr %86, i64 %88
  %90 = getelementptr inbounds nuw %"struct.xgboost::PathElement", ptr %89, i32 0, i32 3
  store float %85, ptr %90, align 4, !tbaa !16
  br label %91

91:                                               ; preds = %44
  %92 = load i32, ptr %11, align 4, !tbaa !8
  %93 = add nsw i32 %92, -1
  store i32 %93, ptr %11, align 4, !tbaa !8
  br label %40, !llvm.loop !17

94:                                               ; preds = %43
  ret void
}