; Function Attrs: mustprogress nofree norecurse nosync nounwind memory(argmem: readwrite) uwtable
define void @_ZN7xgboost10ExtendPathEPNS_11PathElementEjffi(ptr noundef captures(none) %0, i32 noundef %1, float noundef %2, float noundef %3, i32 noundef %4) local_unnamed_addr #3 {
  %6 = zext i32 %1 to i64
  %7 = getelementptr inbounds nuw %"struct.xgboost::PathElement", ptr %0, i64 %6
  store i32 %4, ptr %7, align 4, !tbaa !3
  %8 = getelementptr inbounds nuw i8, ptr %7, i64 4
  store float %2, ptr %8, align 4, !tbaa !9
  %9 = getelementptr inbounds nuw i8, ptr %7, i64 8
  store float %3, ptr %9, align 4, !tbaa !10
  %10 = icmp eq i32 %1, 0
  %11 = select i1 %10, float 1.000000e+00, float 0.000000e+00
  %12 = getelementptr inbounds nuw i8, ptr %7, i64 12
  store float %11, ptr %12, align 4, !tbaa !11
  %.029 = add i32 %1, -1
  %13 = icmp sgt i32 %.029, -1
  br i1 %13, label %.lr.ph, label %._crit_edge

.lr.ph:                                           ; preds = %5
  %14 = add nuw i32 %1, 1
  %15 = uitofp i32 %14 to float
  %16 = zext nneg i32 %.029 to i64
  br label %17

._crit_edge:                                      ; preds = %17, %5
  ret void

17:                                               ; preds = %.lr.ph, %17
  %indvars.iv32 = phi i64 [ %6, %.lr.ph ], [ %indvars.iv.next33, %17 ]
  %indvars.iv = phi i64 [ %16, %.lr.ph ], [ %indvars.iv.next, %17 ]
  %18 = getelementptr inbounds nuw %"struct.xgboost::PathElement", ptr %0, i64 %indvars.iv, i32 3
  %19 = load float, ptr %18, align 4, !tbaa !11
  %20 = fmul float %3, %19
  %21 = trunc nuw i64 %indvars.iv32 to i32
  %22 = uitofp nneg i32 %21 to float
  %23 = fmul float %20, %22
  %24 = fdiv float %23, %15
  %25 = getelementptr inbounds nuw %"struct.xgboost::PathElement", ptr %0, i64 %indvars.iv32, i32 3
  %26 = load float, ptr %25, align 4, !tbaa !11
  %27 = fadd float %26, %24
  store float %27, ptr %25, align 4, !tbaa !11
  %28 = fmul float %2, %19
  %29 = trunc nuw nsw i64 %indvars.iv to i32
  %30 = sub i32 %1, %29
  %31 = uitofp i32 %30 to float
  %32 = fmul float %28, %31
  %33 = fdiv float %32, %15
  store float %33, ptr %18, align 4, !tbaa !11
  %indvars.iv.next = add nsw i64 %indvars.iv, -1
  %.not = icmp eq i64 %indvars.iv, 0
  %indvars.iv.next33 = add nsw i64 %indvars.iv32, -1
  br i1 %.not, label %._crit_edge, label %17, !llvm.loop !12
}